target datalayout = "e-m:e-p270:32:32-p271:32:32-p272:64:64-i64:64-i128:128-f80:128-n8:16:32:64-S128"
target triple = "x86_64-pc-linux-gnu"

%"struct.boost::urls::url_base::op_t" = type { ptr, ptr, ptr, ptr }
%"class.boost::core::basic_string_view" = type { ptr, i64 }
%"class.boost::urls::url_view_base" = type { [8 x i8], %"struct.boost::urls::detail::url_impl", ptr }
%"struct.boost::urls::detail::url_impl" = type <{ ptr, [8 x i64], [7 x i64], i64, i64, [16 x i8], i16, [2 x i8], i32, i16, i8, [5 x i8] }>
%"struct.std::array.50" = type { [4 x i8] }

@_ZN5boost4urls8url_base4op_tD1Ev = unnamed_addr alias void (ptr), ptr @_ZN5boost4urls8url_base4op_tD2Ev
@_ZN5boost4urls8url_base4op_tC1ERS1_PNS_4core17basic_string_viewIcEES7_ = unnamed_addr alias void (ptr, ptr, ptr, ptr), ptr @_ZN5boost4urls8url_base4op_tC2ERS1_PNS_4core17basic_string_viewIcEES7_

; Function Attrs: mustprogress nounwind uwtable
define linkonce_odr hidden noundef ptr @_ZNSt14__array_traitsIhLm4EE6_S_ptrERA4_Kh(ptr noundef nonnull align 1 dereferenceable(4) %0) #2 comdat align 2 {
  %2 = alloca ptr, align 8
  store ptr %0, ptr %2, align 8, !tbaa !7
  %3 = load ptr, ptr %2, align 8, !tbaa !7
  %4 = getelementptr inbounds [4 x i8], ptr %3, i64 0, i64 0
  ret ptr %4
}

; Function Attrs: mustprogress nounwind willreturn memory(none) uwtable
define linkonce_odr hidden noundef i64 @_ZNKSt5arrayIhLm4EE4sizeEv(ptr noundef nonnull align 1 dereferenceable(4) %0) #12 comdat align 2 {
  %2 = alloca ptr, align 8
  store ptr %0, ptr %2, align 8, !tbaa !7
  ret i64 4
}

; Function Attrs: mustprogress nounwind willreturn memory(none) uwtable
define linkonce_odr hidden noundef ptr @_ZNSt5arrayIhLm4EE4dataEv(ptr noundef nonnull align 1 dereferenceable(4) %0) #12 comdat align 2 {
  %2 = alloca ptr, align 8
  store ptr %0, ptr %2, align 8, !tbaa !7
  %3 = load ptr, ptr %2, align 8
  %4 = getelementptr inbounds nuw %"struct.std::array.50", ptr %3, i32 0, i32 0
  %5 = call noundef ptr @_ZNSt14__array_traitsIhLm4EE6_S_ptrERA4_Kh(ptr noundef nonnull align 1 dereferenceable(4) %4) #9
  ret ptr %5
}

; Function Attrs: mustprogress nounwind uwtable
define linkonce_odr hidden noundef ptr @_ZNK5boost4core17basic_string_viewIcE4dataEv(ptr noundef nonnull align 8 dereferenceable(16) %0) #2 comdat align 2 {
  %2 = alloca ptr, align 8
  store ptr %0, ptr %2, align 8, !tbaa !7
  %3 = load ptr, ptr %2, align 8
  %4 = getelementptr inbounds nuw %"class.boost::core::basic_string_view", ptr %3, i32 0, i32 0
  %5 = load ptr, ptr %4, align 8, !tbaa !58
  ret ptr %5
}

; Function Attrs: mustprogress nounwind uwtable
define linkonce_odr hidden noundef i64 @_ZNK5boost4core17basic_string_viewIcE4sizeEv(ptr noundef nonnull align 8 dereferenceable(16) %0) #2 comdat align 2 {
  %2 = alloca ptr, align 8
  store ptr %0, ptr %2, align 8, !tbaa !7
  %3 = load ptr, ptr %2, align 8
  %4 = getelementptr inbounds nuw %"class.boost::core::basic_string_view", ptr %3, i32 0, i32 1
  %5 = load i64, ptr %4, align 8, !tbaa !60
  ret i64 %5
}

; Function Attrs: mustprogress uwtable
define noundef nonnull align 8 dereferenceable(216) ptr @_ZN5boost4urls8url_base13set_host_ipv4ERKNS0_12ipv4_addressE(ptr noundef nonnull align 8 dereferenceable(216) %0, ptr noundef nonnull align 4 dereferenceable(4) %1) #5 align 2 personality ptr @__gxx_personality_v0 {
  %3 = alloca ptr, align 8
  %4 = alloca ptr, align 8
  %5 = alloca %"struct.boost::urls::url_base::op_t", align 8
  %6 = alloca [15 x i8], align 1
  %7 = alloca %"class.boost::core::basic_string_view", align 8
  %8 = alloca ptr, align 8
  %9 = alloca i32, align 4
  %10 = alloca ptr, align 8
  %11 = alloca %"struct.std::array.50", align 1
  store ptr %0, ptr %3, align 8, !tbaa !7
  store ptr %1, ptr %4, align 8, !tbaa !7
  %12 = load ptr, ptr %3, align 8
  call void @llvm.lifetime.start.p0(i64 32, ptr %5) #9
  call void @_ZN5boost4urls8url_base4op_tC1ERS1_PNS_4core17basic_string_viewIcEES7_(ptr noundef nonnull align 8 dereferenceable(32) %5, ptr noundef nonnull align 8 dereferenceable(216) %12, ptr noundef null, ptr noundef null) #9
  call void @llvm.lifetime.start.p0(i64 15, ptr %6) #9
  call void @llvm.lifetime.start.p0(i64 16, ptr %7) #9
  %13 = load ptr, ptr %4, align 8, !tbaa !7
  %14 = getelementptr inbounds [15 x i8], ptr %6, i64 0, i64 0
  %15 = invoke { ptr, i64 } @_ZNK5boost4urls12ipv4_address9to_bufferEPcm(ptr noundef nonnull align 4 dereferenceable(4) %13, ptr noundef %14, i64 noundef 15)
          to label %16 unwind label %46

16:                                               ; preds = %2
  %17 = getelementptr inbounds nuw { ptr, i64 }, ptr %7, i32 0, i32 0
  %18 = extractvalue { ptr, i64 } %15, 0
  store ptr %18, ptr %17, align 8
  %19 = getelementptr inbounds nuw { ptr, i64 }, ptr %7, i32 0, i32 1
  %20 = extractvalue { ptr, i64 } %15, 1
  store i64 %20, ptr %19, align 8
  call void @llvm.lifetime.start.p0(i64 8, ptr %10) #9
  %21 = call noundef i64 @_ZNK5boost4core17basic_string_viewIcE4sizeEv(ptr noundef nonnull align 8 dereferenceable(16) %7) #9
  %22 = invoke noundef ptr @_ZN5boost4urls8url_base13set_host_implEmRNS1_4op_tE(ptr noundef nonnull align 8 dereferenceable(216) %12, i64 noundef %21, ptr noundef nonnull align 8 dereferenceable(32) %5)
          to label %23 unwind label %50

23:                                               ; preds = %16
  store ptr %22, ptr %10, align 8, !tbaa !7
  %24 = load ptr, ptr %10, align 8, !tbaa !7
  %25 = call noundef ptr @_ZNK5boost4core17basic_string_viewIcE4dataEv(ptr noundef nonnull align 8 dereferenceable(16) %7) #9
  %26 = call noundef i64 @_ZNK5boost4core17basic_string_viewIcE4sizeEv(ptr noundef nonnull align 8 dereferenceable(16) %7) #9
  call void @llvm.memcpy.p0.p0.i64(ptr align 1 %24, ptr align 1 %25, i64 %26, i1 false)
  %27 = getelementptr inbounds i8, ptr %12, i64 8
  %28 = getelementptr inbounds nuw %"class.boost::urls::url_view_base", ptr %27, i32 0, i32 1
  %29 = call noundef i64 @_ZNK5boost4urls6detail8url_impl3lenEi(ptr noundef nonnull align 8 dereferenceable(171) %28, i32 noundef 2) #9
  %30 = getelementptr inbounds i8, ptr %12, i64 8
  %31 = getelementptr inbounds nuw %"class.boost::urls::url_view_base", ptr %30, i32 0, i32 1
  %32 = getelementptr inbounds nuw %"struct.boost::urls::detail::url_impl", ptr %31, i32 0, i32 2
  %33 = getelementptr inbounds [7 x i64], ptr %32, i64 0, i64 2
  store i64 %29, ptr %33, align 8, !tbaa !21
  %34 = getelementptr inbounds i8, ptr %12, i64 8
  %35 = getelementptr inbounds nuw %"class.boost::urls::url_view_base", ptr %34, i32 0, i32 1
  %36 = getelementptr inbounds nuw %"struct.boost::urls::detail::url_impl", ptr %35, i32 0, i32 8
  store i32 2, ptr %36, align 4, !tbaa !63
  call void @llvm.lifetime.start.p0(i64 4, ptr %11) #9
  %37 = load ptr, ptr %4, align 8, !tbaa !7
  %38 = call i32 @_ZNK5boost4urls12ipv4_address8to_bytesEv(ptr noundef nonnull align 4 dereferenceable(4) %37) #9
  %39 = getelementptr inbounds nuw %"struct.std::array.50", ptr %11, i32 0, i32 0
  store i32 %38, ptr %39, align 1
  %40 = getelementptr inbounds i8, ptr %12, i64 8
  %41 = getelementptr inbounds nuw %"class.boost::urls::url_view_base", ptr %40, i32 0, i32 1
  %42 = getelementptr inbounds nuw %"struct.boost::urls::detail::url_impl", ptr %41, i32 0, i32 5
  %43 = getelementptr inbounds [16 x i8], ptr %42, i64 0, i64 0
  %44 = call noundef ptr @_ZNSt5arrayIhLm4EE4dataEv(ptr noundef nonnull align 1 dereferenceable(4) %11) #23
  %45 = call noundef i64 @_ZNKSt5arrayIhLm4EE4sizeEv(ptr noundef nonnull align 1 dereferenceable(4) %11) #23
  call void @llvm.memcpy.p0.p0.i64(ptr align 8 %43, ptr align 1 %44, i64 %45, i1 false)
  call void @llvm.lifetime.end.p0(i64 4, ptr %11) #9
  call void @llvm.lifetime.end.p0(i64 8, ptr %10) #9
  call void @llvm.lifetime.end.p0(i64 16, ptr %7) #9
  call void @llvm.lifetime.end.p0(i64 15, ptr %6) #9
  call void @_ZN5boost4urls8url_base4op_tD1Ev(ptr noundef nonnull align 8 dereferenceable(32) %5) #9
  call void @llvm.lifetime.end.p0(i64 32, ptr %5) #9
  ret ptr %12

46:                                               ; preds = %2
  %47 = landingpad { ptr, i32 }
          cleanup
  %48 = extractvalue { ptr, i32 } %47, 0
  store ptr %48, ptr %8, align 8
  %49 = extractvalue { ptr, i32 } %47, 1
  store i32 %49, ptr %9, align 4
  br label %54

50:                                               ; preds = %16
  %51 = landingpad { ptr, i32 }
          cleanup
  %52 = extractvalue { ptr, i32 } %51, 0
  store ptr %52, ptr %8, align 8
  %53 = extractvalue { ptr, i32 } %51, 1
  store i32 %53, ptr %9, align 4
  call void @llvm.lifetime.end.p0(i64 8, ptr %10) #9
  br label %54

54:                                               ; preds = %50, %46
  call void @llvm.lifetime.end.p0(i64 16, ptr %7) #9
  call void @llvm.lifetime.end.p0(i64 15, ptr %6) #9
  call void @_ZN5boost4urls8url_base4op_tD1Ev(ptr noundef nonnull align 8 dereferenceable(32) %5) #9
  call void @llvm.lifetime.end.p0(i64 32, ptr %5) #9
  br label %55

55:                                               ; preds = %54
  %56 = load ptr, ptr %8, align 8
  %57 = load i32, ptr %9, align 4
  %58 = insertvalue { ptr, i32 } poison, ptr %56, 0
  %59 = insertvalue { ptr, i32 } %58, i32 %57, 1
  resume { ptr, i32 } %59
}