; Function Attrs: mustprogress uwtable
define noundef nonnull align 8 dereferenceable(216) ptr @_ZN5boost4urls8url_base13set_host_ipv4ERKNS0_12ipv4_addressE(ptr noundef nonnull returned align 8 dereferenceable(216) %0, ptr noundef nonnull align 4 dereferenceable(4) %1) local_unnamed_addr #10 align 2 personality ptr @__gxx_personality_v0 {
  %3 = alloca %"struct.boost::urls::url_base::op_t", align 8
  %4 = alloca [15 x i8], align 1
  call void @llvm.lifetime.start.p0(i64 32, ptr nonnull %3) #30
  call void @_ZN5boost4urls8url_base4op_tC1ERS1_PNS_4core17basic_string_viewIcEES7_(ptr noundef nonnull align 8 dereferenceable(32) %3, ptr noundef nonnull align 8 dereferenceable(216) %0, ptr noundef null, ptr noundef null) #30
  call void @llvm.lifetime.start.p0(i64 15, ptr nonnull %4) #30
  %5 = invoke { ptr, i64 } @_ZNK5boost4urls12ipv4_address9to_bufferEPcm(ptr noundef nonnull align 4 dereferenceable(4) %1, ptr noundef nonnull %4, i64 noundef 15)
          to label %6 unwind label %17

6:                                                ; preds = %2
  %7 = extractvalue { ptr, i64 } %5, 1
  %8 = invoke noundef ptr @_ZN5boost4urls8url_base13set_host_implEmRNS1_4op_tE(ptr noundef nonnull align 8 dereferenceable(216) %0, i64 noundef %7, ptr noundef nonnull align 8 dereferenceable(32) %3)
          to label %9 unwind label %19

9:                                                ; preds = %6
  %10 = extractvalue { ptr, i64 } %5, 0
  call void @llvm.memcpy.p0.p0.i64(ptr align 1 %8, ptr align 1 %10, i64 %7, i1 false)
  %11 = getelementptr inbounds i8, ptr %0, i64 16
  %12 = call noundef i64 @_ZNK5boost4urls6detail8url_impl3lenEi(ptr noundef nonnull align 8 dereferenceable(171) %11, i32 noundef 2) #30
  %13 = getelementptr inbounds i8, ptr %0, i64 104
  store i64 %12, ptr %13, align 8, !tbaa !14
  %14 = getelementptr inbounds i8, ptr %0, i64 180
  store i32 2, ptr %14, align 4, !tbaa !73
  %15 = call i32 @_ZNK5boost4urls12ipv4_address8to_bytesEv(ptr noundef nonnull align 4 dereferenceable(4) %1) #30
  %16 = getelementptr inbounds i8, ptr %0, i64 160
  store i32 %15, ptr %16, align 8
  call void @llvm.lifetime.end.p0(i64 15, ptr nonnull %4) #30
  call void @_ZN5boost4urls8url_base4op_tD1Ev(ptr noundef nonnull align 8 dereferenceable(32) %3) #30
  call void @llvm.lifetime.end.p0(i64 32, ptr nonnull %3) #30
  ret ptr %0

17:                                               ; preds = %2
  %18 = landingpad { ptr, i32 }
          cleanup
  br label %21

19:                                               ; preds = %6
  %20 = landingpad { ptr, i32 }
          cleanup
  br label %21

21:                                               ; preds = %19, %17
  %.pn = phi { ptr, i32 } [ %20, %19 ], [ %18, %17 ]
  call void @llvm.lifetime.end.p0(i64 15, ptr nonnull %4) #30
  call void @_ZN5boost4urls8url_base4op_tD1Ev(ptr noundef nonnull align 8 dereferenceable(32) %3) #30
  call void @llvm.lifetime.end.p0(i64 32, ptr nonnull %3) #30
  resume { ptr, i32 } %.pn
}